target datalayout = "e-m:e-p270:32:32-p271:32:32-p272:64:64-i64:64-i128:128-f80:128-n8:16:32:64-S128"
target triple = "x86_64-pc-linux-gnu"

%"class.std::__cxx11::basic_string" = type { %"struct.std::__cxx11::basic_string<char>::_Alloc_hider", i64, %union.anon }
%"struct.std::__cxx11::basic_string<char>::_Alloc_hider" = type { ptr }
%union.anon = type { i64, [8 x i8] }
%"class.cv::Rect_" = type { i32, i32, i32, i32 }
%"class.cv::detail::tracking::TrackerContribSamplerAlgorithm" = type { %"class.cv::detail::tracking::TrackerSamplerAlgorithm", %"class.std::__cxx11::basic_string" }
%"class.cv::detail::tracking::TrackerSamplerAlgorithm" = type { ptr }
%"struct.cv::detail::tracking::TrackerSamplerCS::Params" = type { float, float }
%"class.cv::detail::tracking::TrackerSamplerCS" = type <{ %"class.cv::detail::tracking::TrackerContribSamplerAlgorithm", %"struct.cv::detail::tracking::TrackerSamplerCS::Params", i32, %"class.cv::Rect_", %"class.cv::Rect_", %"class.cv::Rect_", [4 x i8] }>

; Function Attrs: mustprogress nounwind uwtable
define void @_ZN2cv6detail8tracking16TrackerSamplerCS13setCheckedROIENS_5Rect_IiEE(ptr noundef nonnull align 8 dereferenceable(100) %0, i64 %1, i64 %2) #8 align 2 {
  %4 = alloca %"class.cv::Rect_", align 4
  %5 = alloca ptr, align 8
  %6 = alloca i32, align 4
  %7 = alloca i32, align 4
  %8 = getelementptr inbounds nuw { i64, i64 }, ptr %4, i32 0, i32 0
  store i64 %1, ptr %8, align 4
  %9 = getelementptr inbounds nuw { i64, i64 }, ptr %4, i32 0, i32 1
  store i64 %2, ptr %9, align 4
  store ptr %0, ptr %5, align 8, !tbaa !150
  %10 = load ptr, ptr %5, align 8
  call void @llvm.lifetime.start.p0(i64 4, ptr %6) #3
  call void @llvm.lifetime.start.p0(i64 4, ptr %7) #3
  %11 = getelementptr inbounds nuw %"class.cv::Rect_", ptr %4, i32 0, i32 0
  %12 = load i32, ptr %11, align 4, !tbaa !171
  %13 = getelementptr inbounds nuw %"class.cv::detail::tracking::TrackerSamplerCS", ptr %10, i32 0, i32 4
  %14 = getelementptr inbounds nuw %"class.cv::Rect_", ptr %13, i32 0, i32 0
  %15 = load i32, ptr %14, align 4, !tbaa !212
  %16 = sub nsw i32 %12, %15
  store i32 %16, ptr %6, align 4, !tbaa !58
  %17 = getelementptr inbounds nuw %"class.cv::Rect_", ptr %4, i32 0, i32 1
  %18 = load i32, ptr %17, align 4, !tbaa !172
  %19 = getelementptr inbounds nuw %"class.cv::detail::tracking::TrackerSamplerCS", ptr %10, i32 0, i32 4
  %20 = getelementptr inbounds nuw %"class.cv::Rect_", ptr %19, i32 0, i32 1
  %21 = load i32, ptr %20, align 4, !tbaa !213
  %22 = sub nsw i32 %18, %21
  store i32 %22, ptr %7, align 4, !tbaa !58
  %23 = load i32, ptr %7, align 4, !tbaa !58
  %24 = icmp slt i32 %23, 0
  br i1 %24, label %25, label %29

25:                                               ; preds = %3
  %26 = getelementptr inbounds nuw %"class.cv::detail::tracking::TrackerSamplerCS", ptr %10, i32 0, i32 4
  %27 = getelementptr inbounds nuw %"class.cv::Rect_", ptr %26, i32 0, i32 1
  %28 = load i32, ptr %27, align 4, !tbaa !213
  br label %32

29:                                               ; preds = %3
  %30 = getelementptr inbounds nuw %"class.cv::Rect_", ptr %4, i32 0, i32 1
  %31 = load i32, ptr %30, align 4, !tbaa !172
  br label %32

32:                                               ; preds = %29, %25
  %33 = phi i32 [ %28, %25 ], [ %31, %29 ]
  %34 = getelementptr inbounds nuw %"class.cv::detail::tracking::TrackerSamplerCS", ptr %10, i32 0, i32 5
  %35 = getelementptr inbounds nuw %"class.cv::Rect_", ptr %34, i32 0, i32 1
  store i32 %33, ptr %35, align 4, !tbaa !208
  %36 = load i32, ptr %6, align 4, !tbaa !58
  %37 = icmp slt i32 %36, 0
  br i1 %37, label %38, label %42

38:                                               ; preds = %32
  %39 = getelementptr inbounds nuw %"class.cv::detail::tracking::TrackerSamplerCS", ptr %10, i32 0, i32 4
  %40 = getelementptr inbounds nuw %"class.cv::Rect_", ptr %39, i32 0, i32 0
  %41 = load i32, ptr %40, align 4, !tbaa !212
  br label %45

42:                                               ; preds = %32
  %43 = getelementptr inbounds nuw %"class.cv::Rect_", ptr %4, i32 0, i32 0
  %44 = load i32, ptr %43, align 4, !tbaa !171
  br label %45

45:                                               ; preds = %42, %38
  %46 = phi i32 [ %41, %38 ], [ %44, %42 ]
  %47 = getelementptr inbounds nuw %"class.cv::detail::tracking::TrackerSamplerCS", ptr %10, i32 0, i32 5
  %48 = getelementptr inbounds nuw %"class.cv::Rect_", ptr %47, i32 0, i32 0
  store i32 %46, ptr %48, align 4, !tbaa !209
  %49 = getelementptr inbounds nuw %"class.cv::Rect_", ptr %4, i32 0, i32 0
  %50 = load i32, ptr %49, align 4, !tbaa !171
  %51 = getelementptr inbounds nuw %"class.cv::Rect_", ptr %4, i32 0, i32 2
  %52 = load i32, ptr %51, align 4, !tbaa !130
  %53 = add nsw i32 %50, %52
  %54 = getelementptr inbounds nuw %"class.cv::detail::tracking::TrackerSamplerCS", ptr %10, i32 0, i32 4
  %55 = getelementptr inbounds nuw %"class.cv::Rect_", ptr %54, i32 0, i32 0
  %56 = load i32, ptr %55, align 4, !tbaa !212
  %57 = getelementptr inbounds nuw %"class.cv::detail::tracking::TrackerSamplerCS", ptr %10, i32 0, i32 4
  %58 = getelementptr inbounds nuw %"class.cv::Rect_", ptr %57, i32 0, i32 2
  %59 = load i32, ptr %58, align 4, !tbaa !203
  %60 = add nsw i32 %56, %59
  %61 = sub nsw i32 %53, %60
  store i32 %61, ptr %6, align 4, !tbaa !58
  %62 = getelementptr inbounds nuw %"class.cv::Rect_", ptr %4, i32 0, i32 1
  %63 = load i32, ptr %62, align 4, !tbaa !172
  %64 = getelementptr inbounds nuw %"class.cv::Rect_", ptr %4, i32 0, i32 3
  %65 = load i32, ptr %64, align 4, !tbaa !132
  %66 = add nsw i32 %63, %65
  %67 = getelementptr inbounds nuw %"class.cv::detail::tracking::TrackerSamplerCS", ptr %10, i32 0, i32 4
  %68 = getelementptr inbounds nuw %"class.cv::Rect_", ptr %67, i32 0, i32 1
  %69 = load i32, ptr %68, align 4, !tbaa !213
  %70 = getelementptr inbounds nuw %"class.cv::detail::tracking::TrackerSamplerCS", ptr %10, i32 0, i32 4
  %71 = getelementptr inbounds nuw %"class.cv::Rect_", ptr %70, i32 0, i32 3
  %72 = load i32, ptr %71, align 4, !tbaa !202
  %73 = add nsw i32 %69, %72
  %74 = sub nsw i32 %66, %73
  store i32 %74, ptr %7, align 4, !tbaa !58
  %75 = load i32, ptr %7, align 4, !tbaa !58
  %76 = icmp sgt i32 %75, 0
  br i1 %76, label %77, label %89

77:                                               ; preds = %45
  %78 = getelementptr inbounds nuw %"class.cv::detail::tracking::TrackerSamplerCS", ptr %10, i32 0, i32 4
  %79 = getelementptr inbounds nuw %"class.cv::Rect_", ptr %78, i32 0, i32 3
  %80 = load i32, ptr %79, align 4, !tbaa !202
  %81 = getelementptr inbounds nuw %"class.cv::detail::tracking::TrackerSamplerCS", ptr %10, i32 0, i32 4
  %82 = getelementptr inbounds nuw %"class.cv::Rect_", ptr %81, i32 0, i32 1
  %83 = load i32, ptr %82, align 4, !tbaa !213
  %84 = add nsw i32 %80, %83
  %85 = getelementptr inbounds nuw %"class.cv::detail::tracking::TrackerSamplerCS", ptr %10, i32 0, i32 5
  %86 = getelementptr inbounds nuw %"class.cv::Rect_", ptr %85, i32 0, i32 1
  %87 = load i32, ptr %86, align 4, !tbaa !208
  %88 = sub nsw i32 %84, %87
  br label %99

89:                                               ; preds = %45
  %90 = getelementptr inbounds nuw %"class.cv::Rect_", ptr %4, i32 0, i32 3
  %91 = load i32, ptr %90, align 4, !tbaa !132
  %92 = getelementptr inbounds nuw %"class.cv::Rect_", ptr %4, i32 0, i32 1
  %93 = load i32, ptr %92, align 4, !tbaa !172
  %94 = add nsw i32 %91, %93
  %95 = getelementptr inbounds nuw %"class.cv::detail::tracking::TrackerSamplerCS", ptr %10, i32 0, i32 5
  %96 = getelementptr inbounds nuw %"class.cv::Rect_", ptr %95, i32 0, i32 1
  %97 = load i32, ptr %96, align 4, !tbaa !208
  %98 = sub nsw i32 %94, %97
  br label %99

99:                                               ; preds = %89, %77
  %100 = phi i32 [ %88, %77 ], [ %98, %89 ]
  %101 = getelementptr inbounds nuw %"class.cv::detail::tracking::TrackerSamplerCS", ptr %10, i32 0, i32 5
  %102 = getelementptr inbounds nuw %"class.cv::Rect_", ptr %101, i32 0, i32 3
  store i32 %100, ptr %102, align 4, !tbaa !206
  %103 = load i32, ptr %6, align 4, !tbaa !58
  %104 = icmp sgt i32 %103, 0
  br i1 %104, label %105, label %117

105:                                              ; preds = %99
  %106 = getelementptr inbounds nuw %"class.cv::detail::tracking::TrackerSamplerCS", ptr %10, i32 0, i32 4
  %107 = getelementptr inbounds nuw %"class.cv::Rect_", ptr %106, i32 0, i32 2
  %108 = load i32, ptr %107, align 4, !tbaa !203
  %109 = getelementptr inbounds nuw %"class.cv::detail::tracking::TrackerSamplerCS", ptr %10, i32 0, i32 4
  %110 = getelementptr inbounds nuw %"class.cv::Rect_", ptr %109, i32 0, i32 0
  %111 = load i32, ptr %110, align 4, !tbaa !212
  %112 = add nsw i32 %108, %111
  %113 = getelementptr inbounds nuw %"class.cv::detail::tracking::TrackerSamplerCS", ptr %10, i32 0, i32 5
  %114 = getelementptr inbounds nuw %"class.cv::Rect_", ptr %113, i32 0, i32 0
  %115 = load i32, ptr %114, align 4, !tbaa !209
  %116 = sub nsw i32 %112, %115
  br label %127

117:                                              ; preds = %99
  %118 = getelementptr inbounds nuw %"class.cv::Rect_", ptr %4, i32 0, i32 2
  %119 = load i32, ptr %118, align 4, !tbaa !130
  %120 = getelementptr inbounds nuw %"class.cv::Rect_", ptr %4, i32 0, i32 0
  %121 = load i32, ptr %120, align 4, !tbaa !171
  %122 = add nsw i32 %119, %121
  %123 = getelementptr inbounds nuw %"class.cv::detail::tracking::TrackerSamplerCS", ptr %10, i32 0, i32 5
  %124 = getelementptr inbounds nuw %"class.cv::Rect_", ptr %123, i32 0, i32 0
  %125 = load i32, ptr %124, align 4, !tbaa !209
  %126 = sub nsw i32 %122, %125
  br label %127

127:                                              ; preds = %117, %105
  %128 = phi i32 [ %116, %105 ], [ %126, %117 ]
  %129 = getelementptr inbounds nuw %"class.cv::detail::tracking::TrackerSamplerCS", ptr %10, i32 0, i32 5
  %130 = getelementptr inbounds nuw %"class.cv::Rect_", ptr %129, i32 0, i32 2
  store i32 %128, ptr %130, align 4, !tbaa !207
  call void @llvm.lifetime.end.p0(i64 4, ptr %7) #3
  call void @llvm.lifetime.end.p0(i64 4, ptr %6) #3
  ret void
}