; Function Attrs: mustprogress nofree norecurse nosync nounwind willreturn memory(argmem: readwrite) uwtable
define void @_ZN2cv6detail8tracking16TrackerSamplerCS13setCheckedROIENS_5Rect_IiEE(ptr noundef nonnull align 8 captures(none) dereferenceable(100) initializes((84, 100)) %0, i64 %1, i64 %2) local_unnamed_addr #17 align 2 {
  %.sroa.0.0.extract.trunc = trunc i64 %1 to i32
  %.sroa.5.0.extract.shift = lshr i64 %1, 32
  %.sroa.5.0.extract.trunc = trunc nuw i64 %.sroa.5.0.extract.shift to i32
  %.sroa.9.8.extract.trunc = trunc i64 %2 to i32
  %.sroa.12.8.extract.shift = lshr i64 %2, 32
  %.sroa.12.8.extract.trunc = trunc nuw i64 %.sroa.12.8.extract.shift to i32
  %4 = getelementptr inbounds nuw i8, ptr %0, i64 68
  %5 = load i32, ptr %4, align 4, !tbaa !200
  %6 = getelementptr inbounds nuw i8, ptr %0, i64 72
  %7 = load i32, ptr %6, align 8, !tbaa !201
  %..sroa.5.0.extract.trunc = tail call i32 @llvm.smax.i32(i32 %7, i32 %.sroa.5.0.extract.trunc)
  %8 = getelementptr inbounds nuw i8, ptr %0, i64 84
  %9 = getelementptr inbounds nuw i8, ptr %0, i64 88
  store i32 %..sroa.5.0.extract.trunc, ptr %9, align 8, !tbaa !191
  %10 = tail call i32 @llvm.smax.i32(i32 %5, i32 %.sroa.0.0.extract.trunc)
  store i32 %10, ptr %8, align 4, !tbaa !192
  %11 = add nsw i32 %.sroa.9.8.extract.trunc, %.sroa.0.0.extract.trunc
  %12 = getelementptr inbounds nuw i8, ptr %0, i64 76
  %13 = load i32, ptr %12, align 4, !tbaa !190
  %14 = add nsw i32 %13, %5
  %15 = add nsw i32 %.sroa.12.8.extract.trunc, %.sroa.5.0.extract.trunc
  %16 = getelementptr inbounds nuw i8, ptr %0, i64 80
  %17 = load i32, ptr %16, align 8, !tbaa !189
  %18 = add nsw i32 %17, %7
  %.v = tail call i32 @llvm.smin.i32(i32 %15, i32 %18)
  %19 = sub nsw i32 %.v, %..sroa.5.0.extract.trunc
  %20 = getelementptr inbounds nuw i8, ptr %0, i64 96
  store i32 %19, ptr %20, align 8, !tbaa !193
  %.v12 = tail call i32 @llvm.smin.i32(i32 %11, i32 %14)
  %21 = sub nsw i32 %.v12, %10
  %22 = getelementptr inbounds nuw i8, ptr %0, i64 92
  store i32 %21, ptr %22, align 4, !tbaa !194
  ret void
}